target datalayout = "e-m:e-p270:32:32-p271:32:32-p272:64:64-i64:64-i128:128-f80:128-n8:16:32:64-S128"
target triple = "x86_64-unknown-linux-gnu"

%"class.icu_75::DateIntervalInfo" = type { %"class.icu_75::UObject", %"class.icu_75::UnicodeString", i8, ptr }
%"class.icu_75::UObject" = type { ptr }
%"class.icu_75::UnicodeString" = type { %"class.icu_75::Replaceable", %"union.icu_75::UnicodeString::StackBufferOrFields" }
%"class.icu_75::Replaceable" = type { %"class.icu_75::UObject" }
%"union.icu_75::UnicodeString::StackBufferOrFields" = type { %struct.anon.0, [32 x i8] }
%struct.anon.0 = type { i16, i32, i32, ptr }
%"class.icu_75::Hashtable" = type { ptr, %struct.UHashtable }
%struct.UHashtable = type { ptr, ptr, ptr, ptr, ptr, ptr, i32, i32, i32, i32, float, float, i8, i8 }

; Function Attrs: mustprogress nounwind uwtable
define linkonce_odr noundef signext i8 @_ZNK6icu_7513UnicodeString7isEmptyEv(ptr noundef nonnull align 8 dereferenceable(64) %this) #0 comdat align 2 {
entry:
  %this.addr = alloca ptr, align 8
  store ptr %this, ptr %this.addr, align 8
  %this1 = load ptr, ptr %this.addr, align 8
  %fUnion = getelementptr inbounds %"class.icu_75::UnicodeString", ptr %this1, i32 0, i32 1
  %fLengthAndFlags = getelementptr inbounds %struct.anon.0, ptr %fUnion, i32 0, i32 0
  %0 = load i16, ptr %fLengthAndFlags, align 8
  %conv = sext i16 %0 to i32
  %shr = ashr i32 %conv, 5
  %cmp = icmp eq i32 %shr, 0
  %conv2 = zext i1 %cmp to i8
  ret i8 %conv2
}

; Function Attrs: mustprogress uwtable
define noundef i32 @_ZN6icu_7516DateIntervalInfo28calendarFieldToIntervalIndexE19UCalendarDateFieldsR10UErrorCode(i32 noundef %field, ptr noundef nonnull align 4 dereferenceable(4) %status) #1 align 2 {
entry:
  %retval = alloca i32, align 4
  %field.addr = alloca i32, align 4
  %status.addr = alloca ptr, align 8
  %index = alloca i32, align 4
  store i32 %field, ptr %field.addr, align 4
  store ptr %status, ptr %status.addr, align 8
  %0 = load ptr, ptr %status.addr, align 8
  %1 = load i32, ptr %0, align 4
  %call = call noundef signext i8 @_ZL9U_FAILURE10UErrorCode(i32 noundef %1)
  %tobool = icmp ne i8 %call, 0
  br i1 %tobool, label %if.then, label %if.end

if.then:                                          ; preds = %entry
  store i32 9, ptr %retval, align 4
  br label %return

if.end:                                           ; preds = %entry
  store i32 9, ptr %index, align 4
  %2 = load i32, ptr %field.addr, align 4
  switch i32 %2, label %sw.default [
    i32 0, label %sw.bb
    i32 1, label %sw.bb1
    i32 2, label %sw.bb2
    i32 5, label %sw.bb3
    i32 7, label %sw.bb3
    i32 9, label %sw.bb4
    i32 10, label %sw.bb5
    i32 11, label %sw.bb5
    i32 12, label %sw.bb6
    i32 13, label %sw.bb7
    i32 14, label %sw.bb8
  ]

sw.bb:                                            ; preds = %if.end
  store i32 0, ptr %index, align 4
  br label %sw.epilog

sw.bb1:                                           ; preds = %if.end
  store i32 1, ptr %index, align 4
  br label %sw.epilog

sw.bb2:                                           ; preds = %if.end
  store i32 2, ptr %index, align 4
  br label %sw.epilog

sw.bb3:                                           ; preds = %if.end, %if.end
  store i32 3, ptr %index, align 4
  br label %sw.epilog

sw.bb4:                                           ; preds = %if.end
  store i32 4, ptr %index, align 4
  br label %sw.epilog

sw.bb5:                                           ; preds = %if.end, %if.end
  store i32 5, ptr %index, align 4
  br label %sw.epilog

sw.bb6:                                           ; preds = %if.end
  store i32 6, ptr %index, align 4
  br label %sw.epilog

sw.bb7:                                           ; preds = %if.end
  store i32 7, ptr %index, align 4
  br label %sw.epilog

sw.bb8:                                           ; preds = %if.end
  store i32 8, ptr %index, align 4
  br label %sw.epilog

sw.default:                                       ; preds = %if.end
  %3 = load ptr, ptr %status.addr, align 8
  store i32 1, ptr %3, align 4
  br label %sw.epilog

sw.epilog:                                        ; preds = %sw.default, %sw.bb8, %sw.bb7, %sw.bb6, %sw.bb5, %sw.bb4, %sw.bb3, %sw.bb2, %sw.bb1, %sw.bb
  %4 = load i32, ptr %index, align 4
  store i32 %4, ptr %retval, align 4
  br label %return

return:                                           ; preds = %sw.epilog, %if.then
  %5 = load i32, ptr %retval, align 4
  ret i32 %5
}

; Function Attrs: mustprogress uwtable
define linkonce_odr noundef ptr @_ZNK6icu_759Hashtable3getERKNS_13UnicodeStringE(ptr noundef nonnull align 8 dereferenceable(88) %this, ptr noundef nonnull align 8 dereferenceable(64) %key) #1 comdat align 2 {
entry:
  %this.addr = alloca ptr, align 8
  %key.addr = alloca ptr, align 8
  store ptr %this, ptr %this.addr, align 8
  store ptr %key, ptr %key.addr, align 8
  %this1 = load ptr, ptr %this.addr, align 8
  %hash = getelementptr inbounds %"class.icu_75::Hashtable", ptr %this1, i32 0, i32 0
  %0 = load ptr, ptr %hash, align 8
  %1 = load ptr, ptr %key.addr, align 8
  %call = call ptr @uhash_get_75(ptr noundef %0, ptr noundef %1)
  ret ptr %call
}

; Function Attrs: mustprogress nounwind uwtable
define internal noundef signext i8 @_ZL9U_FAILURE10UErrorCode(i32 noundef %code) #0 {
entry:
  %code.addr = alloca i32, align 4
  store i32 %code, ptr %code.addr, align 4
  %0 = load i32, ptr %code.addr, align 4
  %cmp = icmp sgt i32 %0, 0
  %conv = zext i1 %cmp to i8
  ret i8 %conv
}

; Function Attrs: mustprogress uwtable
define noundef nonnull align 8 dereferenceable(64) ptr @_ZNK6icu_7516DateIntervalInfo18getIntervalPatternERKNS_13UnicodeStringE19UCalendarDateFieldsRS1_R10UErrorCode(ptr noundef nonnull align 8 dereferenceable(88) %this, ptr noundef nonnull align 8 dereferenceable(64) %skeleton, i32 noundef %field, ptr noundef nonnull align 8 dereferenceable(64) %result, ptr noundef nonnull align 4 dereferenceable(4) %status) #1 align 2 {
entry:
  %retval = alloca ptr, align 8
  %this.addr = alloca ptr, align 8
  %skeleton.addr = alloca ptr, align 8
  %field.addr = alloca i32, align 4
  %result.addr = alloca ptr, align 8
  %status.addr = alloca ptr, align 8
  %patternsOfOneSkeleton = alloca ptr, align 8
  %index = alloca i32, align 4
  %intervalPattern = alloca ptr, align 8
  store ptr %this, ptr %this.addr, align 8
  store ptr %skeleton, ptr %skeleton.addr, align 8
  store i32 %field, ptr %field.addr, align 4
  store ptr %result, ptr %result.addr, align 8
  store ptr %status, ptr %status.addr, align 8
  %this1 = load ptr, ptr %this.addr, align 8
  %0 = load ptr, ptr %status.addr, align 8
  %1 = load i32, ptr %0, align 4
  %call = call noundef signext i8 @_ZL9U_FAILURE10UErrorCode(i32 noundef %1)
  %tobool = icmp ne i8 %call, 0
  br i1 %tobool, label %if.then, label %if.end

if.then:                                          ; preds = %entry
  %2 = load ptr, ptr %result.addr, align 8
  store ptr %2, ptr %retval, align 8
  br label %return

if.end:                                           ; preds = %entry
  %fIntervalPatterns = getelementptr inbounds %"class.icu_75::DateIntervalInfo", ptr %this1, i32 0, i32 3
  %3 = load ptr, ptr %fIntervalPatterns, align 8
  %4 = load ptr, ptr %skeleton.addr, align 8
  %call2 = call noundef ptr @_ZNK6icu_759Hashtable3getERKNS_13UnicodeStringE(ptr noundef nonnull align 8 dereferenceable(88) %3, ptr noundef nonnull align 8 dereferenceable(64) %4)
  store ptr %call2, ptr %patternsOfOneSkeleton, align 8
  %5 = load ptr, ptr %patternsOfOneSkeleton, align 8
  %cmp = icmp ne ptr %5, null
  br i1 %cmp, label %if.then3, label %if.end14

if.then3:                                         ; preds = %if.end
  %6 = load i32, ptr %field.addr, align 4
  %7 = load ptr, ptr %status.addr, align 8
  %call4 = call noundef i32 @_ZN6icu_7516DateIntervalInfo28calendarFieldToIntervalIndexE19UCalendarDateFieldsR10UErrorCode(i32 noundef %6, ptr noundef nonnull align 4 dereferenceable(4) %7)
  store i32 %call4, ptr %index, align 4
  %8 = load ptr, ptr %status.addr, align 8
  %9 = load i32, ptr %8, align 4
  %call5 = call noundef signext i8 @_ZL9U_FAILURE10UErrorCode(i32 noundef %9)
  %tobool6 = icmp ne i8 %call5, 0
  br i1 %tobool6, label %if.then7, label %if.end8

if.then7:                                         ; preds = %if.then3
  %10 = load ptr, ptr %result.addr, align 8
  store ptr %10, ptr %retval, align 8
  br label %return

if.end8:                                          ; preds = %if.then3
  %11 = load ptr, ptr %patternsOfOneSkeleton, align 8
  %12 = load i32, ptr %index, align 4
  %idxprom = zext i32 %12 to i64
  %arrayidx = getelementptr inbounds %"class.icu_75::UnicodeString", ptr %11, i64 %idxprom
  store ptr %arrayidx, ptr %intervalPattern, align 8
  %13 = load ptr, ptr %intervalPattern, align 8
  %call9 = call noundef signext i8 @_ZNK6icu_7513UnicodeString7isEmptyEv(ptr noundef nonnull align 8 dereferenceable(64) %13)
  %tobool10 = icmp ne i8 %call9, 0
  br i1 %tobool10, label %if.end13, label %if.then11

if.then11:                                        ; preds = %if.end8
  %14 = load ptr, ptr %intervalPattern, align 8
  %15 = load ptr, ptr %result.addr, align 8
  %call12 = call noundef nonnull align 8 dereferenceable(64) ptr @_ZN6icu_7513UnicodeStringaSERKS0_(ptr noundef nonnull align 8 dereferenceable(64) %15, ptr noundef nonnull align 8 dereferenceable(64) %14)
  br label %if.end13

if.end13:                                         ; preds = %if.then11, %if.end8
  br label %if.end14

if.end14:                                         ; preds = %if.end13, %if.end
  %16 = load ptr, ptr %result.addr, align 8
  store ptr %16, ptr %retval, align 8
  br label %return

return:                                           ; preds = %if.end14, %if.then7, %if.then
  %17 = load ptr, ptr %retval, align 8
  ret ptr %17
}