; Function Attrs: mustprogress uwtable
define noundef nonnull align 8 dereferenceable(64) ptr @_ZNK6icu_7516DateIntervalInfo18getIntervalPatternERKNS_13UnicodeStringE19UCalendarDateFieldsRS1_R10UErrorCode(ptr nocapture noundef nonnull readonly align 8 dereferenceable(88) %this, ptr noundef nonnull align 8 dereferenceable(64) %skeleton, i32 noundef %field, ptr noundef nonnull returned align 8 dereferenceable(64) %result, ptr nocapture noundef nonnull align 4 dereferenceable(4) %status) local_unnamed_addr #1 align 2 {
entry:
  %0 = load i32, ptr %status, align 4
  %cmp.i = icmp slt i32 %0, 1
  br i1 %cmp.i, label %if.end, label %return

if.end:                                           ; preds = %entry
  %fIntervalPatterns = getelementptr inbounds i8, ptr %this, i64 80
  %1 = load ptr, ptr %fIntervalPatterns, align 8
  %2 = load ptr, ptr %1, align 8
  %call.i = tail call noundef ptr @uhash_get_75(ptr noundef %2, ptr noundef nonnull %skeleton)
  %cmp.not = icmp ne ptr %call.i, null
  %3 = load i32, ptr %status, align 4
  %cmp.i.i = icmp slt i32 %3, 1
  %or.cond = select i1 %cmp.not, i1 %cmp.i.i, i1 false
  br i1 %or.cond, label %if.end.i, label %return

if.end.i:                                         ; preds = %if.end
  %4 = icmp ult i32 %field, 15
  br i1 %4, label %switch.hole_check, label %sw.default.i

sw.default.i:                                     ; preds = %switch.hole_check, %if.end.i
  store i32 1, ptr %status, align 4
  br label %return

switch.hole_check:                                ; preds = %if.end.i
  %switch.maskindex = trunc i32 %field to i16
  %switch.shifted = lshr i16 32423, %switch.maskindex
  %5 = and i16 %switch.shifted, 1
  %switch.lobit.not = icmp eq i16 %5, 0
  br i1 %switch.lobit.not, label %sw.default.i, label %switch.lookup

switch.lookup:                                    ; preds = %switch.hole_check
  %6 = zext nneg i32 %field to i64
  %switch.gep = getelementptr inbounds [15 x i64], ptr @switch.table._ZN6icu_7516DateIntervalInfo16DateIntervalSink26setIntervalPatternIfAbsentEPKc19UCalendarDateFieldsRKNS_13ResourceValueER10UErrorCode, i64 0, i64 %6
  %switch.load = load i64, ptr %switch.gep, align 8
  %arrayidx = getelementptr inbounds %"class.icu_75::UnicodeString", ptr %call.i, i64 %switch.load
  %fUnion.i = getelementptr inbounds i8, ptr %arrayidx, i64 8
  %7 = load i16, ptr %fUnion.i, align 8
  %cmp.i10 = icmp ugt i16 %7, 31
  br i1 %cmp.i10, label %if.then11, label %return

if.then11:                                        ; preds = %switch.lookup
  %call12 = tail call noundef nonnull align 8 dereferenceable(64) ptr @_ZN6icu_7513UnicodeStringaSERKS0_(ptr noundef nonnull align 8 dereferenceable(64) %result, ptr noundef nonnull align 8 dereferenceable(64) %arrayidx)
  br label %return

return:                                           ; preds = %sw.default.i, %if.end, %if.then11, %switch.lookup, %entry
  ret ptr %result
}